ARM GAS  /var/folders/5l/y8xcsg6s4873r8dg5jznx69w0000gn/T//ccdqtk2s.s 			page 1


   1              		.cpu cortex-m4
   2              		.eabi_attribute 27, 1
   3              		.eabi_attribute 28, 1
   4              		.eabi_attribute 20, 1
   5              		.eabi_attribute 21, 1
   6              		.eabi_attribute 23, 3
   7              		.eabi_attribute 24, 1
   8              		.eabi_attribute 25, 1
   9              		.eabi_attribute 26, 1
  10              		.eabi_attribute 30, 1
  11              		.eabi_attribute 34, 1
  12              		.eabi_attribute 18, 4
  13              		.file	"stm32f3_discovery.c"
  14              		.text
  15              	.Ltext0:
  16              		.cfi_sections	.debug_frame
  17              		.section	.text.BSP_GetVersion,"ax",%progbits
  18              		.align	1
  19              		.global	BSP_GetVersion
  20              		.arch armv7e-m
  21              		.syntax unified
  22              		.thumb
  23              		.thumb_func
  24              		.fpu fpv4-sp-d16
  26              	BSP_GetVersion:
  27              	.LFB130:
  28              		.file 1 "STM32Cube_FW_F3_V1.11.1/Drivers/BSP/STM32F3-Discovery/stm32f3_discovery.c"
   1:STM32Cube_FW_F3_V1.11.1/Drivers/BSP/STM32F3-Discovery/stm32f3_discovery.c **** /**
   2:STM32Cube_FW_F3_V1.11.1/Drivers/BSP/STM32F3-Discovery/stm32f3_discovery.c ****   ******************************************************************************
   3:STM32Cube_FW_F3_V1.11.1/Drivers/BSP/STM32F3-Discovery/stm32f3_discovery.c ****   * @file    stm32f3_discovery.c
   4:STM32Cube_FW_F3_V1.11.1/Drivers/BSP/STM32F3-Discovery/stm32f3_discovery.c ****   * @author  MCD Application Team
   5:STM32Cube_FW_F3_V1.11.1/Drivers/BSP/STM32F3-Discovery/stm32f3_discovery.c ****   * @brief   This file provides set of firmware functions to manage Leds and
   6:STM32Cube_FW_F3_V1.11.1/Drivers/BSP/STM32F3-Discovery/stm32f3_discovery.c ****   *          push-button available on STM32F3-DISCOVERY Kit from STMicroelectronics.
   7:STM32Cube_FW_F3_V1.11.1/Drivers/BSP/STM32F3-Discovery/stm32f3_discovery.c ****   ******************************************************************************
   8:STM32Cube_FW_F3_V1.11.1/Drivers/BSP/STM32F3-Discovery/stm32f3_discovery.c ****   * @attention
   9:STM32Cube_FW_F3_V1.11.1/Drivers/BSP/STM32F3-Discovery/stm32f3_discovery.c ****   *
  10:STM32Cube_FW_F3_V1.11.1/Drivers/BSP/STM32F3-Discovery/stm32f3_discovery.c ****   * <h2><center>&copy; COPYRIGHT(c) 2016 STMicroelectronics</center></h2>
  11:STM32Cube_FW_F3_V1.11.1/Drivers/BSP/STM32F3-Discovery/stm32f3_discovery.c ****   *
  12:STM32Cube_FW_F3_V1.11.1/Drivers/BSP/STM32F3-Discovery/stm32f3_discovery.c ****   * Redistribution and use in source and binary forms, with or without modification,
  13:STM32Cube_FW_F3_V1.11.1/Drivers/BSP/STM32F3-Discovery/stm32f3_discovery.c ****   * are permitted provided that the following conditions are met:
  14:STM32Cube_FW_F3_V1.11.1/Drivers/BSP/STM32F3-Discovery/stm32f3_discovery.c ****   *   1. Redistributions of source code must retain the above copyright notice,
  15:STM32Cube_FW_F3_V1.11.1/Drivers/BSP/STM32F3-Discovery/stm32f3_discovery.c ****   *      this list of conditions and the following disclaimer.
  16:STM32Cube_FW_F3_V1.11.1/Drivers/BSP/STM32F3-Discovery/stm32f3_discovery.c ****   *   2. Redistributions in binary form must reproduce the above copyright notice,
  17:STM32Cube_FW_F3_V1.11.1/Drivers/BSP/STM32F3-Discovery/stm32f3_discovery.c ****   *      this list of conditions and the following disclaimer in the documentation
  18:STM32Cube_FW_F3_V1.11.1/Drivers/BSP/STM32F3-Discovery/stm32f3_discovery.c ****   *      and/or other materials provided with the distribution.
  19:STM32Cube_FW_F3_V1.11.1/Drivers/BSP/STM32F3-Discovery/stm32f3_discovery.c ****   *   3. Neither the name of STMicroelectronics nor the names of its contributors
  20:STM32Cube_FW_F3_V1.11.1/Drivers/BSP/STM32F3-Discovery/stm32f3_discovery.c ****   *      may be used to endorse or promote products derived from this software
  21:STM32Cube_FW_F3_V1.11.1/Drivers/BSP/STM32F3-Discovery/stm32f3_discovery.c ****   *      without specific prior written permission.
  22:STM32Cube_FW_F3_V1.11.1/Drivers/BSP/STM32F3-Discovery/stm32f3_discovery.c ****   *
  23:STM32Cube_FW_F3_V1.11.1/Drivers/BSP/STM32F3-Discovery/stm32f3_discovery.c ****   * THIS SOFTWARE IS PROVIDED BY THE COPYRIGHT HOLDERS AND CONTRIBUTORS "AS IS"
  24:STM32Cube_FW_F3_V1.11.1/Drivers/BSP/STM32F3-Discovery/stm32f3_discovery.c ****   * AND ANY EXPRESS OR IMPLIED WARRANTIES, INCLUDING, BUT NOT LIMITED TO, THE
  25:STM32Cube_FW_F3_V1.11.1/Drivers/BSP/STM32F3-Discovery/stm32f3_discovery.c ****   * IMPLIED WARRANTIES OF MERCHANTABILITY AND FITNESS FOR A PARTICULAR PURPOSE ARE
  26:STM32Cube_FW_F3_V1.11.1/Drivers/BSP/STM32F3-Discovery/stm32f3_discovery.c ****   * DISCLAIMED. IN NO EVENT SHALL THE COPYRIGHT HOLDER OR CONTRIBUTORS BE LIABLE
  27:STM32Cube_FW_F3_V1.11.1/Drivers/BSP/STM32F3-Discovery/stm32f3_discovery.c ****   * FOR ANY DIRECT, INDIRECT, INCIDENTAL, SPECIAL, EXEMPLARY, OR CONSEQUENTIAL
  28:STM32Cube_FW_F3_V1.11.1/Drivers/BSP/STM32F3-Discovery/stm32f3_discovery.c ****   * DAMAGES (INCLUDING, BUT NOT LIMITED TO, PROCUREMENT OF SUBSTITUTE GOODS OR
  29:STM32Cube_FW_F3_V1.11.1/Drivers/BSP/STM32F3-Discovery/stm32f3_discovery.c ****   * SERVICES; LOSS OF USE, DATA, OR PROFITS; OR BUSINESS INTERRUPTION) HOWEVER
  30:STM32Cube_FW_F3_V1.11.1/Drivers/BSP/STM32F3-Discovery/stm32f3_discovery.c ****   * CAUSED AND ON ANY THEORY OF LIABILITY, WHETHER IN CONTRACT, STRICT LIABILITY,
ARM GAS  /var/folders/5l/y8xcsg6s4873r8dg5jznx69w0000gn/T//ccdqtk2s.s 			page 2


  31:STM32Cube_FW_F3_V1.11.1/Drivers/BSP/STM32F3-Discovery/stm32f3_discovery.c ****   * OR TORT (INCLUDING NEGLIGENCE OR OTHERWISE) ARISING IN ANY WAY OUT OF THE USE
  32:STM32Cube_FW_F3_V1.11.1/Drivers/BSP/STM32F3-Discovery/stm32f3_discovery.c ****   * OF THIS SOFTWARE, EVEN IF ADVISED OF THE POSSIBILITY OF SUCH DAMAGE.
  33:STM32Cube_FW_F3_V1.11.1/Drivers/BSP/STM32F3-Discovery/stm32f3_discovery.c ****   *
  34:STM32Cube_FW_F3_V1.11.1/Drivers/BSP/STM32F3-Discovery/stm32f3_discovery.c ****   ******************************************************************************
  35:STM32Cube_FW_F3_V1.11.1/Drivers/BSP/STM32F3-Discovery/stm32f3_discovery.c ****   */
  36:STM32Cube_FW_F3_V1.11.1/Drivers/BSP/STM32F3-Discovery/stm32f3_discovery.c ****   
  37:STM32Cube_FW_F3_V1.11.1/Drivers/BSP/STM32F3-Discovery/stm32f3_discovery.c **** /* Includes ------------------------------------------------------------------*/
  38:STM32Cube_FW_F3_V1.11.1/Drivers/BSP/STM32F3-Discovery/stm32f3_discovery.c **** #include "stm32f3_discovery.h"
  39:STM32Cube_FW_F3_V1.11.1/Drivers/BSP/STM32F3-Discovery/stm32f3_discovery.c **** 
  40:STM32Cube_FW_F3_V1.11.1/Drivers/BSP/STM32F3-Discovery/stm32f3_discovery.c **** /** @addtogroup BSP
  41:STM32Cube_FW_F3_V1.11.1/Drivers/BSP/STM32F3-Discovery/stm32f3_discovery.c ****   * @{
  42:STM32Cube_FW_F3_V1.11.1/Drivers/BSP/STM32F3-Discovery/stm32f3_discovery.c ****   */ 
  43:STM32Cube_FW_F3_V1.11.1/Drivers/BSP/STM32F3-Discovery/stm32f3_discovery.c **** 
  44:STM32Cube_FW_F3_V1.11.1/Drivers/BSP/STM32F3-Discovery/stm32f3_discovery.c **** /** @addtogroup STM32F3_DISCOVERY
  45:STM32Cube_FW_F3_V1.11.1/Drivers/BSP/STM32F3-Discovery/stm32f3_discovery.c ****   * @brief This file provides set of firmware functions to manage Leds and push-button
  46:STM32Cube_FW_F3_V1.11.1/Drivers/BSP/STM32F3-Discovery/stm32f3_discovery.c ****   *        available on STM32F3-Discovery Kit from STMicroelectronics.
  47:STM32Cube_FW_F3_V1.11.1/Drivers/BSP/STM32F3-Discovery/stm32f3_discovery.c ****   * @{
  48:STM32Cube_FW_F3_V1.11.1/Drivers/BSP/STM32F3-Discovery/stm32f3_discovery.c ****   */ 
  49:STM32Cube_FW_F3_V1.11.1/Drivers/BSP/STM32F3-Discovery/stm32f3_discovery.c **** /** @addtogroup STM32F3_DISCOVERY_Common
  50:STM32Cube_FW_F3_V1.11.1/Drivers/BSP/STM32F3-Discovery/stm32f3_discovery.c ****   * @{
  51:STM32Cube_FW_F3_V1.11.1/Drivers/BSP/STM32F3-Discovery/stm32f3_discovery.c ****   */ 
  52:STM32Cube_FW_F3_V1.11.1/Drivers/BSP/STM32F3-Discovery/stm32f3_discovery.c **** 
  53:STM32Cube_FW_F3_V1.11.1/Drivers/BSP/STM32F3-Discovery/stm32f3_discovery.c **** /** @addtogroup STM32F3_DISCOVERY_Private_Constants
  54:STM32Cube_FW_F3_V1.11.1/Drivers/BSP/STM32F3-Discovery/stm32f3_discovery.c ****   * @{
  55:STM32Cube_FW_F3_V1.11.1/Drivers/BSP/STM32F3-Discovery/stm32f3_discovery.c ****   */ 
  56:STM32Cube_FW_F3_V1.11.1/Drivers/BSP/STM32F3-Discovery/stm32f3_discovery.c **** 
  57:STM32Cube_FW_F3_V1.11.1/Drivers/BSP/STM32F3-Discovery/stm32f3_discovery.c **** /**
  58:STM32Cube_FW_F3_V1.11.1/Drivers/BSP/STM32F3-Discovery/stm32f3_discovery.c ****  * @brief STM32F3 DISCOVERY BSP Driver version number V2.1.5
  59:STM32Cube_FW_F3_V1.11.1/Drivers/BSP/STM32F3-Discovery/stm32f3_discovery.c ****    */
  60:STM32Cube_FW_F3_V1.11.1/Drivers/BSP/STM32F3-Discovery/stm32f3_discovery.c **** #define __STM32F3_DISCO_BSP_VERSION_MAIN   (0x02) /*!< [31:24] main version */
  61:STM32Cube_FW_F3_V1.11.1/Drivers/BSP/STM32F3-Discovery/stm32f3_discovery.c **** #define __STM32F3_DISCO_BSP_VERSION_SUB1   (0x01) /*!< [23:16] sub1 version */
  62:STM32Cube_FW_F3_V1.11.1/Drivers/BSP/STM32F3-Discovery/stm32f3_discovery.c **** #define __STM32F3_DISCO_BSP_VERSION_SUB2   (0x05) /*!< [15:8]  sub2 version */
  63:STM32Cube_FW_F3_V1.11.1/Drivers/BSP/STM32F3-Discovery/stm32f3_discovery.c **** #define __STM32F3_DISCO_BSP_VERSION_RC     (0x00) /*!< [7:0]  release candidate */
  64:STM32Cube_FW_F3_V1.11.1/Drivers/BSP/STM32F3-Discovery/stm32f3_discovery.c **** #define __STM32F3_DISCO_BSP_VERSION        ((__STM32F3_DISCO_BSP_VERSION_MAIN << 24)\
  65:STM32Cube_FW_F3_V1.11.1/Drivers/BSP/STM32F3-Discovery/stm32f3_discovery.c ****                                             |(__STM32F3_DISCO_BSP_VERSION_SUB1 << 16)\
  66:STM32Cube_FW_F3_V1.11.1/Drivers/BSP/STM32F3-Discovery/stm32f3_discovery.c ****                                             |(__STM32F3_DISCO_BSP_VERSION_SUB2 << 8 )\
  67:STM32Cube_FW_F3_V1.11.1/Drivers/BSP/STM32F3-Discovery/stm32f3_discovery.c ****                                             |(__STM32F3_DISCO_BSP_VERSION_RC))
  68:STM32Cube_FW_F3_V1.11.1/Drivers/BSP/STM32F3-Discovery/stm32f3_discovery.c **** /**
  69:STM32Cube_FW_F3_V1.11.1/Drivers/BSP/STM32F3-Discovery/stm32f3_discovery.c ****   * @}
  70:STM32Cube_FW_F3_V1.11.1/Drivers/BSP/STM32F3-Discovery/stm32f3_discovery.c ****   */ 
  71:STM32Cube_FW_F3_V1.11.1/Drivers/BSP/STM32F3-Discovery/stm32f3_discovery.c **** 
  72:STM32Cube_FW_F3_V1.11.1/Drivers/BSP/STM32F3-Discovery/stm32f3_discovery.c ****   /** @addtogroup STM32F3_DISCOVERY_Private_Variables
  73:STM32Cube_FW_F3_V1.11.1/Drivers/BSP/STM32F3-Discovery/stm32f3_discovery.c ****   * @{
  74:STM32Cube_FW_F3_V1.11.1/Drivers/BSP/STM32F3-Discovery/stm32f3_discovery.c ****   */ 
  75:STM32Cube_FW_F3_V1.11.1/Drivers/BSP/STM32F3-Discovery/stm32f3_discovery.c **** /**
  76:STM32Cube_FW_F3_V1.11.1/Drivers/BSP/STM32F3-Discovery/stm32f3_discovery.c ****  * @brief LED variables
  77:STM32Cube_FW_F3_V1.11.1/Drivers/BSP/STM32F3-Discovery/stm32f3_discovery.c ****   */ 
  78:STM32Cube_FW_F3_V1.11.1/Drivers/BSP/STM32F3-Discovery/stm32f3_discovery.c **** GPIO_TypeDef* LED_PORT[LEDn] = {LED3_GPIO_PORT, LED4_GPIO_PORT, LED5_GPIO_PORT, LED6_GPIO_PORT,
  79:STM32Cube_FW_F3_V1.11.1/Drivers/BSP/STM32F3-Discovery/stm32f3_discovery.c ****                                  LED7_GPIO_PORT, LED8_GPIO_PORT, LED9_GPIO_PORT, LED10_GPIO_PORT};
  80:STM32Cube_FW_F3_V1.11.1/Drivers/BSP/STM32F3-Discovery/stm32f3_discovery.c **** 
  81:STM32Cube_FW_F3_V1.11.1/Drivers/BSP/STM32F3-Discovery/stm32f3_discovery.c **** const uint16_t LED_PIN[LEDn] = {LED3_PIN, LED4_PIN, LED5_PIN, LED6_PIN,
  82:STM32Cube_FW_F3_V1.11.1/Drivers/BSP/STM32F3-Discovery/stm32f3_discovery.c ****                                  LED7_PIN, LED8_PIN, LED9_PIN, LED10_PIN};
  83:STM32Cube_FW_F3_V1.11.1/Drivers/BSP/STM32F3-Discovery/stm32f3_discovery.c **** 
  84:STM32Cube_FW_F3_V1.11.1/Drivers/BSP/STM32F3-Discovery/stm32f3_discovery.c **** /**
  85:STM32Cube_FW_F3_V1.11.1/Drivers/BSP/STM32F3-Discovery/stm32f3_discovery.c ****  * @brief BUTTON variables
  86:STM32Cube_FW_F3_V1.11.1/Drivers/BSP/STM32F3-Discovery/stm32f3_discovery.c ****  */
  87:STM32Cube_FW_F3_V1.11.1/Drivers/BSP/STM32F3-Discovery/stm32f3_discovery.c **** GPIO_TypeDef* BUTTON_PORT[BUTTONn] = {USER_BUTTON_GPIO_PORT}; 
ARM GAS  /var/folders/5l/y8xcsg6s4873r8dg5jznx69w0000gn/T//ccdqtk2s.s 			page 3


  88:STM32Cube_FW_F3_V1.11.1/Drivers/BSP/STM32F3-Discovery/stm32f3_discovery.c **** const uint16_t BUTTON_PIN[BUTTONn] = {USER_BUTTON_PIN}; 
  89:STM32Cube_FW_F3_V1.11.1/Drivers/BSP/STM32F3-Discovery/stm32f3_discovery.c **** const uint8_t BUTTON_IRQn[BUTTONn] = {USER_BUTTON_EXTI_IRQn};
  90:STM32Cube_FW_F3_V1.11.1/Drivers/BSP/STM32F3-Discovery/stm32f3_discovery.c **** 
  91:STM32Cube_FW_F3_V1.11.1/Drivers/BSP/STM32F3-Discovery/stm32f3_discovery.c **** /**
  92:STM32Cube_FW_F3_V1.11.1/Drivers/BSP/STM32F3-Discovery/stm32f3_discovery.c ****  * @brief BUS variables
  93:STM32Cube_FW_F3_V1.11.1/Drivers/BSP/STM32F3-Discovery/stm32f3_discovery.c ****  */
  94:STM32Cube_FW_F3_V1.11.1/Drivers/BSP/STM32F3-Discovery/stm32f3_discovery.c **** #ifdef HAL_SPI_MODULE_ENABLED
  95:STM32Cube_FW_F3_V1.11.1/Drivers/BSP/STM32F3-Discovery/stm32f3_discovery.c **** uint32_t SpixTimeout = SPIx_TIMEOUT_MAX;    /*<! Value of Timeout when SPI communication fails */
  96:STM32Cube_FW_F3_V1.11.1/Drivers/BSP/STM32F3-Discovery/stm32f3_discovery.c **** static SPI_HandleTypeDef SpiHandle;
  97:STM32Cube_FW_F3_V1.11.1/Drivers/BSP/STM32F3-Discovery/stm32f3_discovery.c **** #endif
  98:STM32Cube_FW_F3_V1.11.1/Drivers/BSP/STM32F3-Discovery/stm32f3_discovery.c **** 
  99:STM32Cube_FW_F3_V1.11.1/Drivers/BSP/STM32F3-Discovery/stm32f3_discovery.c **** #ifdef HAL_I2C_MODULE_ENABLED
 100:STM32Cube_FW_F3_V1.11.1/Drivers/BSP/STM32F3-Discovery/stm32f3_discovery.c **** static I2C_HandleTypeDef I2cHandle;
 101:STM32Cube_FW_F3_V1.11.1/Drivers/BSP/STM32F3-Discovery/stm32f3_discovery.c **** uint32_t I2cxTimeout = I2Cx_TIMEOUT_MAX;    /*<! Value of Timeout when I2C communication fails */
 102:STM32Cube_FW_F3_V1.11.1/Drivers/BSP/STM32F3-Discovery/stm32f3_discovery.c **** #endif
 103:STM32Cube_FW_F3_V1.11.1/Drivers/BSP/STM32F3-Discovery/stm32f3_discovery.c **** 
 104:STM32Cube_FW_F3_V1.11.1/Drivers/BSP/STM32F3-Discovery/stm32f3_discovery.c **** /**
 105:STM32Cube_FW_F3_V1.11.1/Drivers/BSP/STM32F3-Discovery/stm32f3_discovery.c ****   * @}
 106:STM32Cube_FW_F3_V1.11.1/Drivers/BSP/STM32F3-Discovery/stm32f3_discovery.c ****   */ 
 107:STM32Cube_FW_F3_V1.11.1/Drivers/BSP/STM32F3-Discovery/stm32f3_discovery.c **** 
 108:STM32Cube_FW_F3_V1.11.1/Drivers/BSP/STM32F3-Discovery/stm32f3_discovery.c **** /** @defgroup STM32F3_DISCOVERY_BUS Bus Operation functions
 109:STM32Cube_FW_F3_V1.11.1/Drivers/BSP/STM32F3-Discovery/stm32f3_discovery.c ****   * @{
 110:STM32Cube_FW_F3_V1.11.1/Drivers/BSP/STM32F3-Discovery/stm32f3_discovery.c ****   */ 
 111:STM32Cube_FW_F3_V1.11.1/Drivers/BSP/STM32F3-Discovery/stm32f3_discovery.c **** #ifdef HAL_I2C_MODULE_ENABLED
 112:STM32Cube_FW_F3_V1.11.1/Drivers/BSP/STM32F3-Discovery/stm32f3_discovery.c **** /* I2Cx bus function */
 113:STM32Cube_FW_F3_V1.11.1/Drivers/BSP/STM32F3-Discovery/stm32f3_discovery.c **** static void     I2Cx_Init(void);
 114:STM32Cube_FW_F3_V1.11.1/Drivers/BSP/STM32F3-Discovery/stm32f3_discovery.c **** static void     I2Cx_WriteData(uint16_t Addr, uint8_t Reg, uint8_t Value);
 115:STM32Cube_FW_F3_V1.11.1/Drivers/BSP/STM32F3-Discovery/stm32f3_discovery.c **** static uint8_t  I2Cx_ReadData(uint16_t Addr, uint8_t Reg);
 116:STM32Cube_FW_F3_V1.11.1/Drivers/BSP/STM32F3-Discovery/stm32f3_discovery.c **** static void     I2Cx_Error (void);
 117:STM32Cube_FW_F3_V1.11.1/Drivers/BSP/STM32F3-Discovery/stm32f3_discovery.c **** static void     I2Cx_MspInit(I2C_HandleTypeDef *hi2c);
 118:STM32Cube_FW_F3_V1.11.1/Drivers/BSP/STM32F3-Discovery/stm32f3_discovery.c **** #endif
 119:STM32Cube_FW_F3_V1.11.1/Drivers/BSP/STM32F3-Discovery/stm32f3_discovery.c **** 
 120:STM32Cube_FW_F3_V1.11.1/Drivers/BSP/STM32F3-Discovery/stm32f3_discovery.c **** #ifdef HAL_SPI_MODULE_ENABLED
 121:STM32Cube_FW_F3_V1.11.1/Drivers/BSP/STM32F3-Discovery/stm32f3_discovery.c **** /* SPIx bus function */
 122:STM32Cube_FW_F3_V1.11.1/Drivers/BSP/STM32F3-Discovery/stm32f3_discovery.c **** static void     SPIx_Init(void);
 123:STM32Cube_FW_F3_V1.11.1/Drivers/BSP/STM32F3-Discovery/stm32f3_discovery.c **** static uint8_t  SPIx_WriteRead(uint8_t byte);
 124:STM32Cube_FW_F3_V1.11.1/Drivers/BSP/STM32F3-Discovery/stm32f3_discovery.c **** static void     SPIx_Error (void);
 125:STM32Cube_FW_F3_V1.11.1/Drivers/BSP/STM32F3-Discovery/stm32f3_discovery.c **** static void     SPIx_MspInit(SPI_HandleTypeDef *hspi);
 126:STM32Cube_FW_F3_V1.11.1/Drivers/BSP/STM32F3-Discovery/stm32f3_discovery.c **** #endif
 127:STM32Cube_FW_F3_V1.11.1/Drivers/BSP/STM32F3-Discovery/stm32f3_discovery.c **** 
 128:STM32Cube_FW_F3_V1.11.1/Drivers/BSP/STM32F3-Discovery/stm32f3_discovery.c **** #ifdef HAL_SPI_MODULE_ENABLED
 129:STM32Cube_FW_F3_V1.11.1/Drivers/BSP/STM32F3-Discovery/stm32f3_discovery.c **** /* Link function for GYRO peripheral */
 130:STM32Cube_FW_F3_V1.11.1/Drivers/BSP/STM32F3-Discovery/stm32f3_discovery.c **** void            GYRO_IO_Init(void);
 131:STM32Cube_FW_F3_V1.11.1/Drivers/BSP/STM32F3-Discovery/stm32f3_discovery.c **** void            GYRO_IO_Write(uint8_t* pBuffer, uint8_t WriteAddr, uint16_t NumByteToWrite);
 132:STM32Cube_FW_F3_V1.11.1/Drivers/BSP/STM32F3-Discovery/stm32f3_discovery.c **** void            GYRO_IO_Read(uint8_t* pBuffer, uint8_t ReadAddr, uint16_t NumByteToRead);
 133:STM32Cube_FW_F3_V1.11.1/Drivers/BSP/STM32F3-Discovery/stm32f3_discovery.c **** #endif
 134:STM32Cube_FW_F3_V1.11.1/Drivers/BSP/STM32F3-Discovery/stm32f3_discovery.c **** 
 135:STM32Cube_FW_F3_V1.11.1/Drivers/BSP/STM32F3-Discovery/stm32f3_discovery.c **** #ifdef HAL_I2C_MODULE_ENABLED
 136:STM32Cube_FW_F3_V1.11.1/Drivers/BSP/STM32F3-Discovery/stm32f3_discovery.c **** /* Link function for COMPASS / ACCELEROMETER peripheral */
 137:STM32Cube_FW_F3_V1.11.1/Drivers/BSP/STM32F3-Discovery/stm32f3_discovery.c **** void      COMPASSACCELERO_IO_Init(void);
 138:STM32Cube_FW_F3_V1.11.1/Drivers/BSP/STM32F3-Discovery/stm32f3_discovery.c **** void      COMPASSACCELERO_IO_ITConfig(void);
 139:STM32Cube_FW_F3_V1.11.1/Drivers/BSP/STM32F3-Discovery/stm32f3_discovery.c **** void      COMPASSACCELERO_IO_Write(uint16_t DeviceAddr, uint8_t RegisterAddr, uint8_t Value);
 140:STM32Cube_FW_F3_V1.11.1/Drivers/BSP/STM32F3-Discovery/stm32f3_discovery.c **** uint8_t   COMPASSACCELERO_IO_Read(uint16_t DeviceAddr, uint8_t RegisterAddr);
 141:STM32Cube_FW_F3_V1.11.1/Drivers/BSP/STM32F3-Discovery/stm32f3_discovery.c **** #endif
 142:STM32Cube_FW_F3_V1.11.1/Drivers/BSP/STM32F3-Discovery/stm32f3_discovery.c **** 
 143:STM32Cube_FW_F3_V1.11.1/Drivers/BSP/STM32F3-Discovery/stm32f3_discovery.c **** /**
 144:STM32Cube_FW_F3_V1.11.1/Drivers/BSP/STM32F3-Discovery/stm32f3_discovery.c ****   * @}
ARM GAS  /var/folders/5l/y8xcsg6s4873r8dg5jznx69w0000gn/T//ccdqtk2s.s 			page 4


 145:STM32Cube_FW_F3_V1.11.1/Drivers/BSP/STM32F3-Discovery/stm32f3_discovery.c ****   */ 
 146:STM32Cube_FW_F3_V1.11.1/Drivers/BSP/STM32F3-Discovery/stm32f3_discovery.c **** 
 147:STM32Cube_FW_F3_V1.11.1/Drivers/BSP/STM32F3-Discovery/stm32f3_discovery.c **** /** @addtogroup STM32F3_DISCOVERY_Exported_Functions
 148:STM32Cube_FW_F3_V1.11.1/Drivers/BSP/STM32F3-Discovery/stm32f3_discovery.c ****   * @{
 149:STM32Cube_FW_F3_V1.11.1/Drivers/BSP/STM32F3-Discovery/stm32f3_discovery.c ****   */ 
 150:STM32Cube_FW_F3_V1.11.1/Drivers/BSP/STM32F3-Discovery/stm32f3_discovery.c **** 
 151:STM32Cube_FW_F3_V1.11.1/Drivers/BSP/STM32F3-Discovery/stm32f3_discovery.c **** /**
 152:STM32Cube_FW_F3_V1.11.1/Drivers/BSP/STM32F3-Discovery/stm32f3_discovery.c ****   * @brief  This method returns the STM32F3-DISCOVERY BSP Driver revision
 153:STM32Cube_FW_F3_V1.11.1/Drivers/BSP/STM32F3-Discovery/stm32f3_discovery.c ****   * @retval version : 0xXYZR (8bits for each decimal, R for RC)
 154:STM32Cube_FW_F3_V1.11.1/Drivers/BSP/STM32F3-Discovery/stm32f3_discovery.c ****   */
 155:STM32Cube_FW_F3_V1.11.1/Drivers/BSP/STM32F3-Discovery/stm32f3_discovery.c **** uint32_t BSP_GetVersion(void)
 156:STM32Cube_FW_F3_V1.11.1/Drivers/BSP/STM32F3-Discovery/stm32f3_discovery.c **** {
  29              		.loc 1 156 1 view -0
  30              		.cfi_startproc
  31              		@ args = 0, pretend = 0, frame = 0
  32              		@ frame_needed = 0, uses_anonymous_args = 0
  33              		@ link register save eliminated.
 157:STM32Cube_FW_F3_V1.11.1/Drivers/BSP/STM32F3-Discovery/stm32f3_discovery.c ****   return __STM32F3_DISCO_BSP_VERSION;
  34              		.loc 1 157 3 view .LVU1
 158:STM32Cube_FW_F3_V1.11.1/Drivers/BSP/STM32F3-Discovery/stm32f3_discovery.c **** }
  35              		.loc 1 158 1 is_stmt 0 view .LVU2
  36 0000 0048     		ldr	r0, .L2
  37 0002 7047     		bx	lr
  38              	.L3:
  39              		.align	2
  40              	.L2:
  41 0004 00050102 		.word	33621248
  42              		.cfi_endproc
  43              	.LFE130:
  45              		.section	.text.BSP_LED_Init,"ax",%progbits
  46              		.align	1
  47              		.global	BSP_LED_Init
  48              		.syntax unified
  49              		.thumb
  50              		.thumb_func
  51              		.fpu fpv4-sp-d16
  53              	BSP_LED_Init:
  54              	.LVL0:
  55              	.LFB131:
 159:STM32Cube_FW_F3_V1.11.1/Drivers/BSP/STM32F3-Discovery/stm32f3_discovery.c **** 
 160:STM32Cube_FW_F3_V1.11.1/Drivers/BSP/STM32F3-Discovery/stm32f3_discovery.c **** /**
 161:STM32Cube_FW_F3_V1.11.1/Drivers/BSP/STM32F3-Discovery/stm32f3_discovery.c ****   * @brief  Configures LED GPIO.
 162:STM32Cube_FW_F3_V1.11.1/Drivers/BSP/STM32F3-Discovery/stm32f3_discovery.c ****   * @param  Led Specifies the Led to be configured. 
 163:STM32Cube_FW_F3_V1.11.1/Drivers/BSP/STM32F3-Discovery/stm32f3_discovery.c ****   *   This parameter can be one of following parameters:
 164:STM32Cube_FW_F3_V1.11.1/Drivers/BSP/STM32F3-Discovery/stm32f3_discovery.c ****   *     @arg LED_RED
 165:STM32Cube_FW_F3_V1.11.1/Drivers/BSP/STM32F3-Discovery/stm32f3_discovery.c ****   *     @arg LED_BLUE
 166:STM32Cube_FW_F3_V1.11.1/Drivers/BSP/STM32F3-Discovery/stm32f3_discovery.c ****   *     @arg LED_ORANGE
 167:STM32Cube_FW_F3_V1.11.1/Drivers/BSP/STM32F3-Discovery/stm32f3_discovery.c ****   *     @arg LED_GREEN
 168:STM32Cube_FW_F3_V1.11.1/Drivers/BSP/STM32F3-Discovery/stm32f3_discovery.c ****   *     @arg LED_GREEN2
 169:STM32Cube_FW_F3_V1.11.1/Drivers/BSP/STM32F3-Discovery/stm32f3_discovery.c ****   *     @arg LED_ORANGE2
 170:STM32Cube_FW_F3_V1.11.1/Drivers/BSP/STM32F3-Discovery/stm32f3_discovery.c ****   *     @arg LED_BLUE2
 171:STM32Cube_FW_F3_V1.11.1/Drivers/BSP/STM32F3-Discovery/stm32f3_discovery.c ****   *     @arg LED_RED2
 172:STM32Cube_FW_F3_V1.11.1/Drivers/BSP/STM32F3-Discovery/stm32f3_discovery.c ****   * @retval None
 173:STM32Cube_FW_F3_V1.11.1/Drivers/BSP/STM32F3-Discovery/stm32f3_discovery.c ****   */
 174:STM32Cube_FW_F3_V1.11.1/Drivers/BSP/STM32F3-Discovery/stm32f3_discovery.c **** void BSP_LED_Init(Led_TypeDef Led)
 175:STM32Cube_FW_F3_V1.11.1/Drivers/BSP/STM32F3-Discovery/stm32f3_discovery.c **** {
  56              		.loc 1 175 1 is_stmt 1 view -0
ARM GAS  /var/folders/5l/y8xcsg6s4873r8dg5jznx69w0000gn/T//ccdqtk2s.s 			page 5


  57              		.cfi_startproc
  58              		@ args = 0, pretend = 0, frame = 56
  59              		@ frame_needed = 0, uses_anonymous_args = 0
  60              		.loc 1 175 1 is_stmt 0 view .LVU4
  61 0000 70B5     		push	{r4, r5, r6, lr}
  62              	.LCFI0:
  63              		.cfi_def_cfa_offset 16
  64              		.cfi_offset 4, -16
  65              		.cfi_offset 5, -12
  66              		.cfi_offset 6, -8
  67              		.cfi_offset 14, -4
  68 0002 8EB0     		sub	sp, sp, #56
  69              	.LCFI1:
  70              		.cfi_def_cfa_offset 72
 176:STM32Cube_FW_F3_V1.11.1/Drivers/BSP/STM32F3-Discovery/stm32f3_discovery.c ****   GPIO_InitTypeDef  GPIO_InitStruct;
  71              		.loc 1 176 3 is_stmt 1 view .LVU5
 177:STM32Cube_FW_F3_V1.11.1/Drivers/BSP/STM32F3-Discovery/stm32f3_discovery.c ****   
 178:STM32Cube_FW_F3_V1.11.1/Drivers/BSP/STM32F3-Discovery/stm32f3_discovery.c ****   /* Enable the GPIO_LED Clock */
 179:STM32Cube_FW_F3_V1.11.1/Drivers/BSP/STM32F3-Discovery/stm32f3_discovery.c ****   LEDx_GPIO_CLK_ENABLE(Led);
  72              		.loc 1 179 3 view .LVU6
  73              		.loc 1 179 3 view .LVU7
  74 0004 0446     		mov	r4, r0
  75 0006 00BB     		cbnz	r0, .L5
  76              		.loc 1 179 3 discriminator 1 view .LVU8
  77              	.LBB2:
  78              		.loc 1 179 3 discriminator 1 view .LVU9
  79              		.loc 1 179 3 discriminator 1 view .LVU10
  80 0008 3D4B     		ldr	r3, .L20
  81 000a 5A69     		ldr	r2, [r3, #20]
  82 000c 42F40012 		orr	r2, r2, #2097152
  83 0010 5A61     		str	r2, [r3, #20]
  84              		.loc 1 179 3 discriminator 1 view .LVU11
  85 0012 5B69     		ldr	r3, [r3, #20]
  86 0014 03F40013 		and	r3, r3, #2097152
  87 0018 0193     		str	r3, [sp, #4]
  88              		.loc 1 179 3 discriminator 1 view .LVU12
  89 001a 019B     		ldr	r3, [sp, #4]
  90              	.LBE2:
  91              		.loc 1 179 3 discriminator 1 view .LVU13
  92              	.L6:
  93              		.loc 1 179 3 discriminator 24 view .LVU14
  94              		.loc 1 179 3 discriminator 24 view .LVU15
 180:STM32Cube_FW_F3_V1.11.1/Drivers/BSP/STM32F3-Discovery/stm32f3_discovery.c **** 
 181:STM32Cube_FW_F3_V1.11.1/Drivers/BSP/STM32F3-Discovery/stm32f3_discovery.c ****   /* Configure the GPIO_LED pin */
 182:STM32Cube_FW_F3_V1.11.1/Drivers/BSP/STM32F3-Discovery/stm32f3_discovery.c ****   GPIO_InitStruct.Pin = LED_PIN[Led];
  95              		.loc 1 182 3 discriminator 24 view .LVU16
  96              		.loc 1 182 32 is_stmt 0 discriminator 24 view .LVU17
  97 001c 394B     		ldr	r3, .L20+4
  98 001e 33F81460 		ldrh	r6, [r3, r4, lsl #1]
  99              		.loc 1 182 23 discriminator 24 view .LVU18
 100 0022 0996     		str	r6, [sp, #36]
 183:STM32Cube_FW_F3_V1.11.1/Drivers/BSP/STM32F3-Discovery/stm32f3_discovery.c ****   GPIO_InitStruct.Mode = GPIO_MODE_OUTPUT_PP;
 101              		.loc 1 183 3 is_stmt 1 discriminator 24 view .LVU19
 102              		.loc 1 183 24 is_stmt 0 discriminator 24 view .LVU20
 103 0024 0123     		movs	r3, #1
 104 0026 0A93     		str	r3, [sp, #40]
 184:STM32Cube_FW_F3_V1.11.1/Drivers/BSP/STM32F3-Discovery/stm32f3_discovery.c ****   GPIO_InitStruct.Pull = GPIO_PULLUP;
ARM GAS  /var/folders/5l/y8xcsg6s4873r8dg5jznx69w0000gn/T//ccdqtk2s.s 			page 6


 105              		.loc 1 184 3 is_stmt 1 discriminator 24 view .LVU21
 106              		.loc 1 184 24 is_stmt 0 discriminator 24 view .LVU22
 107 0028 0B93     		str	r3, [sp, #44]
 185:STM32Cube_FW_F3_V1.11.1/Drivers/BSP/STM32F3-Discovery/stm32f3_discovery.c ****   GPIO_InitStruct.Speed = GPIO_SPEED_FREQ_HIGH;
 108              		.loc 1 185 3 is_stmt 1 discriminator 24 view .LVU23
 109              		.loc 1 185 25 is_stmt 0 discriminator 24 view .LVU24
 110 002a 0323     		movs	r3, #3
 111 002c 0C93     		str	r3, [sp, #48]
 186:STM32Cube_FW_F3_V1.11.1/Drivers/BSP/STM32F3-Discovery/stm32f3_discovery.c ****   
 187:STM32Cube_FW_F3_V1.11.1/Drivers/BSP/STM32F3-Discovery/stm32f3_discovery.c ****   HAL_GPIO_Init(LED_PORT[Led], &GPIO_InitStruct);
 112              		.loc 1 187 3 is_stmt 1 discriminator 24 view .LVU25
 113 002e 364D     		ldr	r5, .L20+8
 114 0030 09A9     		add	r1, sp, #36
 115 0032 55F82400 		ldr	r0, [r5, r4, lsl #2]
 116              	.LVL1:
 117              		.loc 1 187 3 is_stmt 0 discriminator 24 view .LVU26
 118 0036 FFF7FEFF 		bl	HAL_GPIO_Init
 119              	.LVL2:
 188:STM32Cube_FW_F3_V1.11.1/Drivers/BSP/STM32F3-Discovery/stm32f3_discovery.c ****   
 189:STM32Cube_FW_F3_V1.11.1/Drivers/BSP/STM32F3-Discovery/stm32f3_discovery.c ****   HAL_GPIO_WritePin(LED_PORT[Led], LED_PIN[Led], GPIO_PIN_RESET);
 120              		.loc 1 189 3 is_stmt 1 discriminator 24 view .LVU27
 121 003a 0022     		movs	r2, #0
 122 003c 3146     		mov	r1, r6
 123 003e 55F82400 		ldr	r0, [r5, r4, lsl #2]
 124 0042 FFF7FEFF 		bl	HAL_GPIO_WritePin
 125              	.LVL3:
 190:STM32Cube_FW_F3_V1.11.1/Drivers/BSP/STM32F3-Discovery/stm32f3_discovery.c **** }
 126              		.loc 1 190 1 is_stmt 0 discriminator 24 view .LVU28
 127 0046 0EB0     		add	sp, sp, #56
 128              	.LCFI2:
 129              		.cfi_remember_state
 130              		.cfi_def_cfa_offset 16
 131              		@ sp needed
 132 0048 70BD     		pop	{r4, r5, r6, pc}
 133              	.LVL4:
 134              	.L5:
 135              	.LCFI3:
 136              		.cfi_restore_state
 179:STM32Cube_FW_F3_V1.11.1/Drivers/BSP/STM32F3-Discovery/stm32f3_discovery.c **** 
 137              		.loc 1 179 3 is_stmt 1 discriminator 2 view .LVU29
 138 004a 0128     		cmp	r0, #1
 139 004c 16D0     		beq	.L14
 179:STM32Cube_FW_F3_V1.11.1/Drivers/BSP/STM32F3-Discovery/stm32f3_discovery.c **** 
 140              		.loc 1 179 3 discriminator 5 view .LVU30
 141 004e 0228     		cmp	r0, #2
 142 0050 1FD0     		beq	.L15
 179:STM32Cube_FW_F3_V1.11.1/Drivers/BSP/STM32F3-Discovery/stm32f3_discovery.c **** 
 143              		.loc 1 179 3 discriminator 8 view .LVU31
 144 0052 0328     		cmp	r0, #3
 145 0054 28D0     		beq	.L16
 179:STM32Cube_FW_F3_V1.11.1/Drivers/BSP/STM32F3-Discovery/stm32f3_discovery.c **** 
 146              		.loc 1 179 3 discriminator 11 view .LVU32
 147 0056 0428     		cmp	r0, #4
 148 0058 31D0     		beq	.L17
 179:STM32Cube_FW_F3_V1.11.1/Drivers/BSP/STM32F3-Discovery/stm32f3_discovery.c **** 
 149              		.loc 1 179 3 discriminator 14 view .LVU33
 150 005a 0528     		cmp	r0, #5
ARM GAS  /var/folders/5l/y8xcsg6s4873r8dg5jznx69w0000gn/T//ccdqtk2s.s 			page 7


 151 005c 3AD0     		beq	.L18
 179:STM32Cube_FW_F3_V1.11.1/Drivers/BSP/STM32F3-Discovery/stm32f3_discovery.c **** 
 152              		.loc 1 179 3 discriminator 17 view .LVU34
 153 005e 0628     		cmp	r0, #6
 154 0060 43D0     		beq	.L19
 179:STM32Cube_FW_F3_V1.11.1/Drivers/BSP/STM32F3-Discovery/stm32f3_discovery.c **** 
 155              		.loc 1 179 3 discriminator 20 view .LVU35
 156 0062 0728     		cmp	r0, #7
 157 0064 DAD1     		bne	.L6
 179:STM32Cube_FW_F3_V1.11.1/Drivers/BSP/STM32F3-Discovery/stm32f3_discovery.c **** 
 158              		.loc 1 179 3 discriminator 22 view .LVU36
 159              	.LBB3:
 179:STM32Cube_FW_F3_V1.11.1/Drivers/BSP/STM32F3-Discovery/stm32f3_discovery.c **** 
 160              		.loc 1 179 3 discriminator 22 view .LVU37
 179:STM32Cube_FW_F3_V1.11.1/Drivers/BSP/STM32F3-Discovery/stm32f3_discovery.c **** 
 161              		.loc 1 179 3 discriminator 22 view .LVU38
 162 0066 264B     		ldr	r3, .L20
 163 0068 5A69     		ldr	r2, [r3, #20]
 164 006a 42F40012 		orr	r2, r2, #2097152
 165 006e 5A61     		str	r2, [r3, #20]
 179:STM32Cube_FW_F3_V1.11.1/Drivers/BSP/STM32F3-Discovery/stm32f3_discovery.c **** 
 166              		.loc 1 179 3 discriminator 22 view .LVU39
 167 0070 5B69     		ldr	r3, [r3, #20]
 168 0072 03F40013 		and	r3, r3, #2097152
 169 0076 0893     		str	r3, [sp, #32]
 179:STM32Cube_FW_F3_V1.11.1/Drivers/BSP/STM32F3-Discovery/stm32f3_discovery.c **** 
 170              		.loc 1 179 3 discriminator 22 view .LVU40
 171 0078 089B     		ldr	r3, [sp, #32]
 172 007a CFE7     		b	.L6
 173              	.L14:
 174              	.LBE3:
 179:STM32Cube_FW_F3_V1.11.1/Drivers/BSP/STM32F3-Discovery/stm32f3_discovery.c **** 
 175              		.loc 1 179 3 discriminator 4 view .LVU41
 176              	.LBB4:
 179:STM32Cube_FW_F3_V1.11.1/Drivers/BSP/STM32F3-Discovery/stm32f3_discovery.c **** 
 177              		.loc 1 179 3 discriminator 4 view .LVU42
 179:STM32Cube_FW_F3_V1.11.1/Drivers/BSP/STM32F3-Discovery/stm32f3_discovery.c **** 
 178              		.loc 1 179 3 discriminator 4 view .LVU43
 179 007c 204B     		ldr	r3, .L20
 180 007e 5A69     		ldr	r2, [r3, #20]
 181 0080 42F40012 		orr	r2, r2, #2097152
 182 0084 5A61     		str	r2, [r3, #20]
 179:STM32Cube_FW_F3_V1.11.1/Drivers/BSP/STM32F3-Discovery/stm32f3_discovery.c **** 
 183              		.loc 1 179 3 discriminator 4 view .LVU44
 184 0086 5B69     		ldr	r3, [r3, #20]
 185 0088 03F40013 		and	r3, r3, #2097152
 186 008c 0293     		str	r3, [sp, #8]
 179:STM32Cube_FW_F3_V1.11.1/Drivers/BSP/STM32F3-Discovery/stm32f3_discovery.c **** 
 187              		.loc 1 179 3 discriminator 4 view .LVU45
 188 008e 029B     		ldr	r3, [sp, #8]
 189              	.LBE4:
 179:STM32Cube_FW_F3_V1.11.1/Drivers/BSP/STM32F3-Discovery/stm32f3_discovery.c **** 
 190              		.loc 1 179 3 discriminator 4 view .LVU46
 191 0090 C4E7     		b	.L6
 192              	.L15:
 179:STM32Cube_FW_F3_V1.11.1/Drivers/BSP/STM32F3-Discovery/stm32f3_discovery.c **** 
 193              		.loc 1 179 3 discriminator 7 view .LVU47
ARM GAS  /var/folders/5l/y8xcsg6s4873r8dg5jznx69w0000gn/T//ccdqtk2s.s 			page 8


 194              	.LBB5:
 179:STM32Cube_FW_F3_V1.11.1/Drivers/BSP/STM32F3-Discovery/stm32f3_discovery.c **** 
 195              		.loc 1 179 3 discriminator 7 view .LVU48
 179:STM32Cube_FW_F3_V1.11.1/Drivers/BSP/STM32F3-Discovery/stm32f3_discovery.c **** 
 196              		.loc 1 179 3 discriminator 7 view .LVU49
 197 0092 1B4B     		ldr	r3, .L20
 198 0094 5A69     		ldr	r2, [r3, #20]
 199 0096 42F40012 		orr	r2, r2, #2097152
 200 009a 5A61     		str	r2, [r3, #20]
 179:STM32Cube_FW_F3_V1.11.1/Drivers/BSP/STM32F3-Discovery/stm32f3_discovery.c **** 
 201              		.loc 1 179 3 discriminator 7 view .LVU50
 202 009c 5B69     		ldr	r3, [r3, #20]
 203 009e 03F40013 		and	r3, r3, #2097152
 204 00a2 0393     		str	r3, [sp, #12]
 179:STM32Cube_FW_F3_V1.11.1/Drivers/BSP/STM32F3-Discovery/stm32f3_discovery.c **** 
 205              		.loc 1 179 3 discriminator 7 view .LVU51
 206 00a4 039B     		ldr	r3, [sp, #12]
 207              	.LBE5:
 179:STM32Cube_FW_F3_V1.11.1/Drivers/BSP/STM32F3-Discovery/stm32f3_discovery.c **** 
 208              		.loc 1 179 3 discriminator 7 view .LVU52
 209 00a6 B9E7     		b	.L6
 210              	.L16:
 179:STM32Cube_FW_F3_V1.11.1/Drivers/BSP/STM32F3-Discovery/stm32f3_discovery.c **** 
 211              		.loc 1 179 3 discriminator 10 view .LVU53
 212              	.LBB6:
 179:STM32Cube_FW_F3_V1.11.1/Drivers/BSP/STM32F3-Discovery/stm32f3_discovery.c **** 
 213              		.loc 1 179 3 discriminator 10 view .LVU54
 179:STM32Cube_FW_F3_V1.11.1/Drivers/BSP/STM32F3-Discovery/stm32f3_discovery.c **** 
 214              		.loc 1 179 3 discriminator 10 view .LVU55
 215 00a8 154B     		ldr	r3, .L20
 216 00aa 5A69     		ldr	r2, [r3, #20]
 217 00ac 42F40012 		orr	r2, r2, #2097152
 218 00b0 5A61     		str	r2, [r3, #20]
 179:STM32Cube_FW_F3_V1.11.1/Drivers/BSP/STM32F3-Discovery/stm32f3_discovery.c **** 
 219              		.loc 1 179 3 discriminator 10 view .LVU56
 220 00b2 5B69     		ldr	r3, [r3, #20]
 221 00b4 03F40013 		and	r3, r3, #2097152
 222 00b8 0493     		str	r3, [sp, #16]
 179:STM32Cube_FW_F3_V1.11.1/Drivers/BSP/STM32F3-Discovery/stm32f3_discovery.c **** 
 223              		.loc 1 179 3 discriminator 10 view .LVU57
 224 00ba 049B     		ldr	r3, [sp, #16]
 225              	.LBE6:
 179:STM32Cube_FW_F3_V1.11.1/Drivers/BSP/STM32F3-Discovery/stm32f3_discovery.c **** 
 226              		.loc 1 179 3 discriminator 10 view .LVU58
 227 00bc AEE7     		b	.L6
 228              	.L17:
 179:STM32Cube_FW_F3_V1.11.1/Drivers/BSP/STM32F3-Discovery/stm32f3_discovery.c **** 
 229              		.loc 1 179 3 discriminator 13 view .LVU59
 230              	.LBB7:
 179:STM32Cube_FW_F3_V1.11.1/Drivers/BSP/STM32F3-Discovery/stm32f3_discovery.c **** 
 231              		.loc 1 179 3 discriminator 13 view .LVU60
 179:STM32Cube_FW_F3_V1.11.1/Drivers/BSP/STM32F3-Discovery/stm32f3_discovery.c **** 
 232              		.loc 1 179 3 discriminator 13 view .LVU61
 233 00be 104B     		ldr	r3, .L20
 234 00c0 5A69     		ldr	r2, [r3, #20]
 235 00c2 42F40012 		orr	r2, r2, #2097152
 236 00c6 5A61     		str	r2, [r3, #20]
ARM GAS  /var/folders/5l/y8xcsg6s4873r8dg5jznx69w0000gn/T//ccdqtk2s.s 			page 9


 179:STM32Cube_FW_F3_V1.11.1/Drivers/BSP/STM32F3-Discovery/stm32f3_discovery.c **** 
 237              		.loc 1 179 3 discriminator 13 view .LVU62
 238 00c8 5B69     		ldr	r3, [r3, #20]
 239 00ca 03F40013 		and	r3, r3, #2097152
 240 00ce 0593     		str	r3, [sp, #20]
 179:STM32Cube_FW_F3_V1.11.1/Drivers/BSP/STM32F3-Discovery/stm32f3_discovery.c **** 
 241              		.loc 1 179 3 discriminator 13 view .LVU63
 242 00d0 059B     		ldr	r3, [sp, #20]
 243              	.LBE7:
 179:STM32Cube_FW_F3_V1.11.1/Drivers/BSP/STM32F3-Discovery/stm32f3_discovery.c **** 
 244              		.loc 1 179 3 discriminator 13 view .LVU64
 245 00d2 A3E7     		b	.L6
 246              	.L18:
 179:STM32Cube_FW_F3_V1.11.1/Drivers/BSP/STM32F3-Discovery/stm32f3_discovery.c **** 
 247              		.loc 1 179 3 discriminator 16 view .LVU65
 248              	.LBB8:
 179:STM32Cube_FW_F3_V1.11.1/Drivers/BSP/STM32F3-Discovery/stm32f3_discovery.c **** 
 249              		.loc 1 179 3 discriminator 16 view .LVU66
 179:STM32Cube_FW_F3_V1.11.1/Drivers/BSP/STM32F3-Discovery/stm32f3_discovery.c **** 
 250              		.loc 1 179 3 discriminator 16 view .LVU67
 251 00d4 0A4B     		ldr	r3, .L20
 252 00d6 5A69     		ldr	r2, [r3, #20]
 253 00d8 42F40012 		orr	r2, r2, #2097152
 254 00dc 5A61     		str	r2, [r3, #20]
 179:STM32Cube_FW_F3_V1.11.1/Drivers/BSP/STM32F3-Discovery/stm32f3_discovery.c **** 
 255              		.loc 1 179 3 discriminator 16 view .LVU68
 256 00de 5B69     		ldr	r3, [r3, #20]
 257 00e0 03F40013 		and	r3, r3, #2097152
 258 00e4 0693     		str	r3, [sp, #24]
 179:STM32Cube_FW_F3_V1.11.1/Drivers/BSP/STM32F3-Discovery/stm32f3_discovery.c **** 
 259              		.loc 1 179 3 discriminator 16 view .LVU69
 260 00e6 069B     		ldr	r3, [sp, #24]
 261              	.LBE8:
 179:STM32Cube_FW_F3_V1.11.1/Drivers/BSP/STM32F3-Discovery/stm32f3_discovery.c **** 
 262              		.loc 1 179 3 discriminator 16 view .LVU70
 263 00e8 98E7     		b	.L6
 264              	.L19:
 179:STM32Cube_FW_F3_V1.11.1/Drivers/BSP/STM32F3-Discovery/stm32f3_discovery.c **** 
 265              		.loc 1 179 3 discriminator 19 view .LVU71
 266              	.LBB9:
 179:STM32Cube_FW_F3_V1.11.1/Drivers/BSP/STM32F3-Discovery/stm32f3_discovery.c **** 
 267              		.loc 1 179 3 discriminator 19 view .LVU72
 179:STM32Cube_FW_F3_V1.11.1/Drivers/BSP/STM32F3-Discovery/stm32f3_discovery.c **** 
 268              		.loc 1 179 3 discriminator 19 view .LVU73
 269 00ea 054B     		ldr	r3, .L20
 270 00ec 5A69     		ldr	r2, [r3, #20]
 271 00ee 42F40012 		orr	r2, r2, #2097152
 272 00f2 5A61     		str	r2, [r3, #20]
 179:STM32Cube_FW_F3_V1.11.1/Drivers/BSP/STM32F3-Discovery/stm32f3_discovery.c **** 
 273              		.loc 1 179 3 discriminator 19 view .LVU74
 274 00f4 5B69     		ldr	r3, [r3, #20]
 275 00f6 03F40013 		and	r3, r3, #2097152
 276 00fa 0793     		str	r3, [sp, #28]
 179:STM32Cube_FW_F3_V1.11.1/Drivers/BSP/STM32F3-Discovery/stm32f3_discovery.c **** 
 277              		.loc 1 179 3 discriminator 19 view .LVU75
 278 00fc 079B     		ldr	r3, [sp, #28]
 279              	.LBE9:
ARM GAS  /var/folders/5l/y8xcsg6s4873r8dg5jznx69w0000gn/T//ccdqtk2s.s 			page 10


 179:STM32Cube_FW_F3_V1.11.1/Drivers/BSP/STM32F3-Discovery/stm32f3_discovery.c **** 
 280              		.loc 1 179 3 discriminator 19 view .LVU76
 281 00fe 8DE7     		b	.L6
 282              	.L21:
 283              		.align	2
 284              	.L20:
 285 0100 00100240 		.word	1073876992
 286 0104 00000000 		.word	.LANCHOR0
 287 0108 00000000 		.word	.LANCHOR1
 288              		.cfi_endproc
 289              	.LFE131:
 291              		.section	.text.BSP_LED_On,"ax",%progbits
 292              		.align	1
 293              		.global	BSP_LED_On
 294              		.syntax unified
 295              		.thumb
 296              		.thumb_func
 297              		.fpu fpv4-sp-d16
 299              	BSP_LED_On:
 300              	.LVL5:
 301              	.LFB132:
 191:STM32Cube_FW_F3_V1.11.1/Drivers/BSP/STM32F3-Discovery/stm32f3_discovery.c **** 
 192:STM32Cube_FW_F3_V1.11.1/Drivers/BSP/STM32F3-Discovery/stm32f3_discovery.c **** /**
 193:STM32Cube_FW_F3_V1.11.1/Drivers/BSP/STM32F3-Discovery/stm32f3_discovery.c ****   * @brief  Turns selected LED On.
 194:STM32Cube_FW_F3_V1.11.1/Drivers/BSP/STM32F3-Discovery/stm32f3_discovery.c ****   * @param  Led Specifies the Led to be set on. 
 195:STM32Cube_FW_F3_V1.11.1/Drivers/BSP/STM32F3-Discovery/stm32f3_discovery.c ****   *   This parameter can be one of following parameters:
 196:STM32Cube_FW_F3_V1.11.1/Drivers/BSP/STM32F3-Discovery/stm32f3_discovery.c ****   *     @arg LED_RED
 197:STM32Cube_FW_F3_V1.11.1/Drivers/BSP/STM32F3-Discovery/stm32f3_discovery.c ****   *     @arg LED4
 198:STM32Cube_FW_F3_V1.11.1/Drivers/BSP/STM32F3-Discovery/stm32f3_discovery.c ****   *     @arg LED5
 199:STM32Cube_FW_F3_V1.11.1/Drivers/BSP/STM32F3-Discovery/stm32f3_discovery.c ****   *     @arg LED6
 200:STM32Cube_FW_F3_V1.11.1/Drivers/BSP/STM32F3-Discovery/stm32f3_discovery.c ****   *     @arg LED7
 201:STM32Cube_FW_F3_V1.11.1/Drivers/BSP/STM32F3-Discovery/stm32f3_discovery.c ****   *     @arg LED8
 202:STM32Cube_FW_F3_V1.11.1/Drivers/BSP/STM32F3-Discovery/stm32f3_discovery.c ****   *     @arg LED9
 203:STM32Cube_FW_F3_V1.11.1/Drivers/BSP/STM32F3-Discovery/stm32f3_discovery.c ****   *     @arg LED10
 204:STM32Cube_FW_F3_V1.11.1/Drivers/BSP/STM32F3-Discovery/stm32f3_discovery.c ****   * @retval None
 205:STM32Cube_FW_F3_V1.11.1/Drivers/BSP/STM32F3-Discovery/stm32f3_discovery.c ****   */
 206:STM32Cube_FW_F3_V1.11.1/Drivers/BSP/STM32F3-Discovery/stm32f3_discovery.c **** void BSP_LED_On(Led_TypeDef Led)
 207:STM32Cube_FW_F3_V1.11.1/Drivers/BSP/STM32F3-Discovery/stm32f3_discovery.c **** {
 302              		.loc 1 207 1 view -0
 303              		.cfi_startproc
 304              		@ args = 0, pretend = 0, frame = 0
 305              		@ frame_needed = 0, uses_anonymous_args = 0
 306              		.loc 1 207 1 is_stmt 0 view .LVU78
 307 0000 08B5     		push	{r3, lr}
 308              	.LCFI4:
 309              		.cfi_def_cfa_offset 8
 310              		.cfi_offset 3, -8
 311              		.cfi_offset 14, -4
 208:STM32Cube_FW_F3_V1.11.1/Drivers/BSP/STM32F3-Discovery/stm32f3_discovery.c ****   HAL_GPIO_WritePin(LED_PORT[Led], LED_PIN[Led], GPIO_PIN_SET); 
 312              		.loc 1 208 3 is_stmt 1 view .LVU79
 313 0002 0122     		movs	r2, #1
 314 0004 044B     		ldr	r3, .L24
 315 0006 33F81010 		ldrh	r1, [r3, r0, lsl #1]
 316 000a 044B     		ldr	r3, .L24+4
 317 000c 53F82000 		ldr	r0, [r3, r0, lsl #2]
 318              	.LVL6:
 319              		.loc 1 208 3 is_stmt 0 view .LVU80
ARM GAS  /var/folders/5l/y8xcsg6s4873r8dg5jznx69w0000gn/T//ccdqtk2s.s 			page 11


 320 0010 FFF7FEFF 		bl	HAL_GPIO_WritePin
 321              	.LVL7:
 209:STM32Cube_FW_F3_V1.11.1/Drivers/BSP/STM32F3-Discovery/stm32f3_discovery.c **** }
 322              		.loc 1 209 1 view .LVU81
 323 0014 08BD     		pop	{r3, pc}
 324              	.L25:
 325 0016 00BF     		.align	2
 326              	.L24:
 327 0018 00000000 		.word	.LANCHOR0
 328 001c 00000000 		.word	.LANCHOR1
 329              		.cfi_endproc
 330              	.LFE132:
 332              		.section	.text.BSP_LED_Off,"ax",%progbits
 333              		.align	1
 334              		.global	BSP_LED_Off
 335              		.syntax unified
 336              		.thumb
 337              		.thumb_func
 338              		.fpu fpv4-sp-d16
 340              	BSP_LED_Off:
 341              	.LVL8:
 342              	.LFB133:
 210:STM32Cube_FW_F3_V1.11.1/Drivers/BSP/STM32F3-Discovery/stm32f3_discovery.c **** 
 211:STM32Cube_FW_F3_V1.11.1/Drivers/BSP/STM32F3-Discovery/stm32f3_discovery.c **** /**
 212:STM32Cube_FW_F3_V1.11.1/Drivers/BSP/STM32F3-Discovery/stm32f3_discovery.c ****   * @brief  Turns selected LED Off.
 213:STM32Cube_FW_F3_V1.11.1/Drivers/BSP/STM32F3-Discovery/stm32f3_discovery.c ****   * @param  Led Specifies the Led to be set off. 
 214:STM32Cube_FW_F3_V1.11.1/Drivers/BSP/STM32F3-Discovery/stm32f3_discovery.c ****   *   This parameter can be one of following parameters:
 215:STM32Cube_FW_F3_V1.11.1/Drivers/BSP/STM32F3-Discovery/stm32f3_discovery.c ****   *     @arg LED_RED
 216:STM32Cube_FW_F3_V1.11.1/Drivers/BSP/STM32F3-Discovery/stm32f3_discovery.c ****   *     @arg LED_BLUE
 217:STM32Cube_FW_F3_V1.11.1/Drivers/BSP/STM32F3-Discovery/stm32f3_discovery.c ****   *     @arg LED_ORANGE
 218:STM32Cube_FW_F3_V1.11.1/Drivers/BSP/STM32F3-Discovery/stm32f3_discovery.c ****   *     @arg LED_GREEN
 219:STM32Cube_FW_F3_V1.11.1/Drivers/BSP/STM32F3-Discovery/stm32f3_discovery.c ****   *     @arg LED_GREEN2
 220:STM32Cube_FW_F3_V1.11.1/Drivers/BSP/STM32F3-Discovery/stm32f3_discovery.c ****   *     @arg LED_ORANGE2
 221:STM32Cube_FW_F3_V1.11.1/Drivers/BSP/STM32F3-Discovery/stm32f3_discovery.c ****   *     @arg LED_BLUE2
 222:STM32Cube_FW_F3_V1.11.1/Drivers/BSP/STM32F3-Discovery/stm32f3_discovery.c ****   *     @arg LED_RED2
 223:STM32Cube_FW_F3_V1.11.1/Drivers/BSP/STM32F3-Discovery/stm32f3_discovery.c ****   * @retval None
 224:STM32Cube_FW_F3_V1.11.1/Drivers/BSP/STM32F3-Discovery/stm32f3_discovery.c ****   */
 225:STM32Cube_FW_F3_V1.11.1/Drivers/BSP/STM32F3-Discovery/stm32f3_discovery.c **** void BSP_LED_Off(Led_TypeDef Led)
 226:STM32Cube_FW_F3_V1.11.1/Drivers/BSP/STM32F3-Discovery/stm32f3_discovery.c **** {
 343              		.loc 1 226 1 is_stmt 1 view -0
 344              		.cfi_startproc
 345              		@ args = 0, pretend = 0, frame = 0
 346              		@ frame_needed = 0, uses_anonymous_args = 0
 347              		.loc 1 226 1 is_stmt 0 view .LVU83
 348 0000 08B5     		push	{r3, lr}
 349              	.LCFI5:
 350              		.cfi_def_cfa_offset 8
 351              		.cfi_offset 3, -8
 352              		.cfi_offset 14, -4
 227:STM32Cube_FW_F3_V1.11.1/Drivers/BSP/STM32F3-Discovery/stm32f3_discovery.c ****   HAL_GPIO_WritePin(LED_PORT[Led], LED_PIN[Led], GPIO_PIN_RESET); 
 353              		.loc 1 227 3 is_stmt 1 view .LVU84
 354 0002 0022     		movs	r2, #0
 355 0004 044B     		ldr	r3, .L28
 356 0006 33F81010 		ldrh	r1, [r3, r0, lsl #1]
 357 000a 044B     		ldr	r3, .L28+4
 358 000c 53F82000 		ldr	r0, [r3, r0, lsl #2]
 359              	.LVL9:
ARM GAS  /var/folders/5l/y8xcsg6s4873r8dg5jznx69w0000gn/T//ccdqtk2s.s 			page 12


 360              		.loc 1 227 3 is_stmt 0 view .LVU85
 361 0010 FFF7FEFF 		bl	HAL_GPIO_WritePin
 362              	.LVL10:
 228:STM32Cube_FW_F3_V1.11.1/Drivers/BSP/STM32F3-Discovery/stm32f3_discovery.c **** }
 363              		.loc 1 228 1 view .LVU86
 364 0014 08BD     		pop	{r3, pc}
 365              	.L29:
 366 0016 00BF     		.align	2
 367              	.L28:
 368 0018 00000000 		.word	.LANCHOR0
 369 001c 00000000 		.word	.LANCHOR1
 370              		.cfi_endproc
 371              	.LFE133:
 373              		.section	.text.BSP_LED_Toggle,"ax",%progbits
 374              		.align	1
 375              		.global	BSP_LED_Toggle
 376              		.syntax unified
 377              		.thumb
 378              		.thumb_func
 379              		.fpu fpv4-sp-d16
 381              	BSP_LED_Toggle:
 382              	.LVL11:
 383              	.LFB134:
 229:STM32Cube_FW_F3_V1.11.1/Drivers/BSP/STM32F3-Discovery/stm32f3_discovery.c **** 
 230:STM32Cube_FW_F3_V1.11.1/Drivers/BSP/STM32F3-Discovery/stm32f3_discovery.c **** /**
 231:STM32Cube_FW_F3_V1.11.1/Drivers/BSP/STM32F3-Discovery/stm32f3_discovery.c ****   * @brief  Toggles the selected LED.
 232:STM32Cube_FW_F3_V1.11.1/Drivers/BSP/STM32F3-Discovery/stm32f3_discovery.c ****   * @param  Led Specifies the Led to be toggled. 
 233:STM32Cube_FW_F3_V1.11.1/Drivers/BSP/STM32F3-Discovery/stm32f3_discovery.c ****   *   This parameter can be one of following parameters:
 234:STM32Cube_FW_F3_V1.11.1/Drivers/BSP/STM32F3-Discovery/stm32f3_discovery.c ****   *     @arg LED_RED
 235:STM32Cube_FW_F3_V1.11.1/Drivers/BSP/STM32F3-Discovery/stm32f3_discovery.c ****   *     @arg LED_BLUE
 236:STM32Cube_FW_F3_V1.11.1/Drivers/BSP/STM32F3-Discovery/stm32f3_discovery.c ****   *     @arg LED_ORANGE
 237:STM32Cube_FW_F3_V1.11.1/Drivers/BSP/STM32F3-Discovery/stm32f3_discovery.c ****   *     @arg LED_GREEN
 238:STM32Cube_FW_F3_V1.11.1/Drivers/BSP/STM32F3-Discovery/stm32f3_discovery.c ****   *     @arg LED_GREEN2
 239:STM32Cube_FW_F3_V1.11.1/Drivers/BSP/STM32F3-Discovery/stm32f3_discovery.c ****   *     @arg LED_ORANGE2
 240:STM32Cube_FW_F3_V1.11.1/Drivers/BSP/STM32F3-Discovery/stm32f3_discovery.c ****   *     @arg LED_BLUE2
 241:STM32Cube_FW_F3_V1.11.1/Drivers/BSP/STM32F3-Discovery/stm32f3_discovery.c ****   *     @arg LED_RED2
 242:STM32Cube_FW_F3_V1.11.1/Drivers/BSP/STM32F3-Discovery/stm32f3_discovery.c ****   * @retval None
 243:STM32Cube_FW_F3_V1.11.1/Drivers/BSP/STM32F3-Discovery/stm32f3_discovery.c ****   */
 244:STM32Cube_FW_F3_V1.11.1/Drivers/BSP/STM32F3-Discovery/stm32f3_discovery.c **** void BSP_LED_Toggle(Led_TypeDef Led)
 245:STM32Cube_FW_F3_V1.11.1/Drivers/BSP/STM32F3-Discovery/stm32f3_discovery.c **** {
 384              		.loc 1 245 1 is_stmt 1 view -0
 385              		.cfi_startproc
 386              		@ args = 0, pretend = 0, frame = 0
 387              		@ frame_needed = 0, uses_anonymous_args = 0
 388              		.loc 1 245 1 is_stmt 0 view .LVU88
 389 0000 08B5     		push	{r3, lr}
 390              	.LCFI6:
 391              		.cfi_def_cfa_offset 8
 392              		.cfi_offset 3, -8
 393              		.cfi_offset 14, -4
 246:STM32Cube_FW_F3_V1.11.1/Drivers/BSP/STM32F3-Discovery/stm32f3_discovery.c ****   HAL_GPIO_TogglePin(LED_PORT[Led], LED_PIN[Led]);
 394              		.loc 1 246 3 is_stmt 1 view .LVU89
 395 0002 044B     		ldr	r3, .L32
 396 0004 33F81010 		ldrh	r1, [r3, r0, lsl #1]
 397 0008 034B     		ldr	r3, .L32+4
 398 000a 53F82000 		ldr	r0, [r3, r0, lsl #2]
 399              	.LVL12:
ARM GAS  /var/folders/5l/y8xcsg6s4873r8dg5jznx69w0000gn/T//ccdqtk2s.s 			page 13


 400              		.loc 1 246 3 is_stmt 0 view .LVU90
 401 000e FFF7FEFF 		bl	HAL_GPIO_TogglePin
 402              	.LVL13:
 247:STM32Cube_FW_F3_V1.11.1/Drivers/BSP/STM32F3-Discovery/stm32f3_discovery.c **** }
 403              		.loc 1 247 1 view .LVU91
 404 0012 08BD     		pop	{r3, pc}
 405              	.L33:
 406              		.align	2
 407              	.L32:
 408 0014 00000000 		.word	.LANCHOR0
 409 0018 00000000 		.word	.LANCHOR1
 410              		.cfi_endproc
 411              	.LFE134:
 413              		.section	.text.BSP_PB_Init,"ax",%progbits
 414              		.align	1
 415              		.global	BSP_PB_Init
 416              		.syntax unified
 417              		.thumb
 418              		.thumb_func
 419              		.fpu fpv4-sp-d16
 421              	BSP_PB_Init:
 422              	.LVL14:
 423              	.LFB135:
 248:STM32Cube_FW_F3_V1.11.1/Drivers/BSP/STM32F3-Discovery/stm32f3_discovery.c **** 
 249:STM32Cube_FW_F3_V1.11.1/Drivers/BSP/STM32F3-Discovery/stm32f3_discovery.c **** 
 250:STM32Cube_FW_F3_V1.11.1/Drivers/BSP/STM32F3-Discovery/stm32f3_discovery.c **** /**
 251:STM32Cube_FW_F3_V1.11.1/Drivers/BSP/STM32F3-Discovery/stm32f3_discovery.c ****   * @brief  Configures Push Button GPIO and EXTI Line.
 252:STM32Cube_FW_F3_V1.11.1/Drivers/BSP/STM32F3-Discovery/stm32f3_discovery.c ****   * @param  Button Specifies the Button to be configured.
 253:STM32Cube_FW_F3_V1.11.1/Drivers/BSP/STM32F3-Discovery/stm32f3_discovery.c ****   *   This parameter should be: BUTTON_USER
 254:STM32Cube_FW_F3_V1.11.1/Drivers/BSP/STM32F3-Discovery/stm32f3_discovery.c ****   * @param  ButtonMode Specifies Button mode.
 255:STM32Cube_FW_F3_V1.11.1/Drivers/BSP/STM32F3-Discovery/stm32f3_discovery.c ****   *   This parameter can be one of following parameters:   
 256:STM32Cube_FW_F3_V1.11.1/Drivers/BSP/STM32F3-Discovery/stm32f3_discovery.c ****   *     @arg BUTTON_MODE_GPIO: Button will be used as simple IO 
 257:STM32Cube_FW_F3_V1.11.1/Drivers/BSP/STM32F3-Discovery/stm32f3_discovery.c ****   *     @arg BUTTON_MODE_EXTI: Button will be connected to EXTI line with interrupt
 258:STM32Cube_FW_F3_V1.11.1/Drivers/BSP/STM32F3-Discovery/stm32f3_discovery.c ****   *                            generation capability  
 259:STM32Cube_FW_F3_V1.11.1/Drivers/BSP/STM32F3-Discovery/stm32f3_discovery.c ****   * @retval None
 260:STM32Cube_FW_F3_V1.11.1/Drivers/BSP/STM32F3-Discovery/stm32f3_discovery.c ****   */
 261:STM32Cube_FW_F3_V1.11.1/Drivers/BSP/STM32F3-Discovery/stm32f3_discovery.c **** void BSP_PB_Init(Button_TypeDef Button, ButtonMode_TypeDef ButtonMode)
 262:STM32Cube_FW_F3_V1.11.1/Drivers/BSP/STM32F3-Discovery/stm32f3_discovery.c **** {
 424              		.loc 1 262 1 is_stmt 1 view -0
 425              		.cfi_startproc
 426              		@ args = 0, pretend = 0, frame = 32
 427              		@ frame_needed = 0, uses_anonymous_args = 0
 428              		.loc 1 262 1 is_stmt 0 view .LVU93
 429 0000 30B5     		push	{r4, r5, lr}
 430              	.LCFI7:
 431              		.cfi_def_cfa_offset 12
 432              		.cfi_offset 4, -12
 433              		.cfi_offset 5, -8
 434              		.cfi_offset 14, -4
 435 0002 89B0     		sub	sp, sp, #36
 436              	.LCFI8:
 437              		.cfi_def_cfa_offset 48
 438 0004 0C46     		mov	r4, r1
 263:STM32Cube_FW_F3_V1.11.1/Drivers/BSP/STM32F3-Discovery/stm32f3_discovery.c ****   GPIO_InitTypeDef GPIO_InitStruct;
 439              		.loc 1 263 3 is_stmt 1 view .LVU94
 264:STM32Cube_FW_F3_V1.11.1/Drivers/BSP/STM32F3-Discovery/stm32f3_discovery.c **** 
 265:STM32Cube_FW_F3_V1.11.1/Drivers/BSP/STM32F3-Discovery/stm32f3_discovery.c ****   /* Enable the BUTTON Clock */
ARM GAS  /var/folders/5l/y8xcsg6s4873r8dg5jznx69w0000gn/T//ccdqtk2s.s 			page 14


 266:STM32Cube_FW_F3_V1.11.1/Drivers/BSP/STM32F3-Discovery/stm32f3_discovery.c ****   BUTTONx_GPIO_CLK_ENABLE(Button);
 440              		.loc 1 266 3 view .LVU95
 441              		.loc 1 266 3 view .LVU96
 442 0006 0546     		mov	r5, r0
 443 0008 48B9     		cbnz	r0, .L35
 444              		.loc 1 266 3 discriminator 1 view .LVU97
 445              	.LBB10:
 446              		.loc 1 266 3 discriminator 1 view .LVU98
 447              		.loc 1 266 3 discriminator 1 view .LVU99
 448 000a 1F4B     		ldr	r3, .L41
 449 000c 5A69     		ldr	r2, [r3, #20]
 450 000e 42F40032 		orr	r2, r2, #131072
 451 0012 5A61     		str	r2, [r3, #20]
 452              		.loc 1 266 3 discriminator 1 view .LVU100
 453 0014 5B69     		ldr	r3, [r3, #20]
 454 0016 03F40033 		and	r3, r3, #131072
 455 001a 0193     		str	r3, [sp, #4]
 456              		.loc 1 266 3 discriminator 1 view .LVU101
 457 001c 019B     		ldr	r3, [sp, #4]
 458              	.L35:
 459              	.LBE10:
 460              		.loc 1 266 3 discriminator 3 view .LVU102
 461              		.loc 1 266 3 discriminator 3 view .LVU103
 267:STM32Cube_FW_F3_V1.11.1/Drivers/BSP/STM32F3-Discovery/stm32f3_discovery.c ****   __HAL_RCC_SYSCFG_CLK_ENABLE();
 462              		.loc 1 267 3 discriminator 3 view .LVU104
 463              	.LBB11:
 464              		.loc 1 267 3 discriminator 3 view .LVU105
 465              		.loc 1 267 3 discriminator 3 view .LVU106
 466 001e 1A4B     		ldr	r3, .L41
 467 0020 9A69     		ldr	r2, [r3, #24]
 468 0022 42F00102 		orr	r2, r2, #1
 469 0026 9A61     		str	r2, [r3, #24]
 470              		.loc 1 267 3 discriminator 3 view .LVU107
 471 0028 9B69     		ldr	r3, [r3, #24]
 472 002a 03F00103 		and	r3, r3, #1
 473 002e 0293     		str	r3, [sp, #8]
 474              		.loc 1 267 3 discriminator 3 view .LVU108
 475 0030 029B     		ldr	r3, [sp, #8]
 476              	.LBE11:
 477              		.loc 1 267 3 discriminator 3 view .LVU109
 268:STM32Cube_FW_F3_V1.11.1/Drivers/BSP/STM32F3-Discovery/stm32f3_discovery.c **** 
 269:STM32Cube_FW_F3_V1.11.1/Drivers/BSP/STM32F3-Discovery/stm32f3_discovery.c ****   if (ButtonMode == BUTTON_MODE_GPIO)
 478              		.loc 1 269 3 discriminator 3 view .LVU110
 479              		.loc 1 269 6 is_stmt 0 discriminator 3 view .LVU111
 480 0032 1CB1     		cbz	r4, .L39
 481              	.LVL15:
 482              	.L36:
 270:STM32Cube_FW_F3_V1.11.1/Drivers/BSP/STM32F3-Discovery/stm32f3_discovery.c ****   {
 271:STM32Cube_FW_F3_V1.11.1/Drivers/BSP/STM32F3-Discovery/stm32f3_discovery.c ****     /* Configure Button pin as input */
 272:STM32Cube_FW_F3_V1.11.1/Drivers/BSP/STM32F3-Discovery/stm32f3_discovery.c ****     GPIO_InitStruct.Pin = BUTTON_PIN[Button];
 273:STM32Cube_FW_F3_V1.11.1/Drivers/BSP/STM32F3-Discovery/stm32f3_discovery.c ****     GPIO_InitStruct.Mode = GPIO_MODE_INPUT;
 274:STM32Cube_FW_F3_V1.11.1/Drivers/BSP/STM32F3-Discovery/stm32f3_discovery.c ****     GPIO_InitStruct.Pull = GPIO_PULLDOWN;
 275:STM32Cube_FW_F3_V1.11.1/Drivers/BSP/STM32F3-Discovery/stm32f3_discovery.c ****     GPIO_InitStruct.Speed = GPIO_SPEED_FREQ_HIGH;
 276:STM32Cube_FW_F3_V1.11.1/Drivers/BSP/STM32F3-Discovery/stm32f3_discovery.c ****     HAL_GPIO_Init(BUTTON_PORT[Button], &GPIO_InitStruct);
 277:STM32Cube_FW_F3_V1.11.1/Drivers/BSP/STM32F3-Discovery/stm32f3_discovery.c ****   }
 278:STM32Cube_FW_F3_V1.11.1/Drivers/BSP/STM32F3-Discovery/stm32f3_discovery.c **** 
 279:STM32Cube_FW_F3_V1.11.1/Drivers/BSP/STM32F3-Discovery/stm32f3_discovery.c ****   if (ButtonMode == BUTTON_MODE_EXTI)
ARM GAS  /var/folders/5l/y8xcsg6s4873r8dg5jznx69w0000gn/T//ccdqtk2s.s 			page 15


 483              		.loc 1 279 3 is_stmt 1 view .LVU112
 484              		.loc 1 279 6 is_stmt 0 view .LVU113
 485 0034 012C     		cmp	r4, #1
 486 0036 10D0     		beq	.L40
 487              	.L34:
 280:STM32Cube_FW_F3_V1.11.1/Drivers/BSP/STM32F3-Discovery/stm32f3_discovery.c ****   {
 281:STM32Cube_FW_F3_V1.11.1/Drivers/BSP/STM32F3-Discovery/stm32f3_discovery.c ****     /* Configure Button pin as input with External interrupt */
 282:STM32Cube_FW_F3_V1.11.1/Drivers/BSP/STM32F3-Discovery/stm32f3_discovery.c ****     GPIO_InitStruct.Pin = BUTTON_PIN[Button];
 283:STM32Cube_FW_F3_V1.11.1/Drivers/BSP/STM32F3-Discovery/stm32f3_discovery.c ****     GPIO_InitStruct.Pull = GPIO_NOPULL;
 284:STM32Cube_FW_F3_V1.11.1/Drivers/BSP/STM32F3-Discovery/stm32f3_discovery.c ****     GPIO_InitStruct.Speed = GPIO_SPEED_FREQ_HIGH;
 285:STM32Cube_FW_F3_V1.11.1/Drivers/BSP/STM32F3-Discovery/stm32f3_discovery.c ****     GPIO_InitStruct.Mode = GPIO_MODE_IT_RISING; 
 286:STM32Cube_FW_F3_V1.11.1/Drivers/BSP/STM32F3-Discovery/stm32f3_discovery.c ****     HAL_GPIO_Init(BUTTON_PORT[Button], &GPIO_InitStruct);
 287:STM32Cube_FW_F3_V1.11.1/Drivers/BSP/STM32F3-Discovery/stm32f3_discovery.c **** 
 288:STM32Cube_FW_F3_V1.11.1/Drivers/BSP/STM32F3-Discovery/stm32f3_discovery.c ****     /* Enable and set Button EXTI Interrupt to the lowest priority */
 289:STM32Cube_FW_F3_V1.11.1/Drivers/BSP/STM32F3-Discovery/stm32f3_discovery.c ****     HAL_NVIC_SetPriority((IRQn_Type)(BUTTON_IRQn[Button]), 0x0F, 0x00);
 290:STM32Cube_FW_F3_V1.11.1/Drivers/BSP/STM32F3-Discovery/stm32f3_discovery.c ****     HAL_NVIC_EnableIRQ((IRQn_Type)(BUTTON_IRQn[Button]));
 291:STM32Cube_FW_F3_V1.11.1/Drivers/BSP/STM32F3-Discovery/stm32f3_discovery.c ****   }
 292:STM32Cube_FW_F3_V1.11.1/Drivers/BSP/STM32F3-Discovery/stm32f3_discovery.c **** }
 488              		.loc 1 292 1 view .LVU114
 489 0038 09B0     		add	sp, sp, #36
 490              	.LCFI9:
 491              		.cfi_remember_state
 492              		.cfi_def_cfa_offset 12
 493              		@ sp needed
 494 003a 30BD     		pop	{r4, r5, pc}
 495              	.LVL16:
 496              	.L39:
 497              	.LCFI10:
 498              		.cfi_restore_state
 272:STM32Cube_FW_F3_V1.11.1/Drivers/BSP/STM32F3-Discovery/stm32f3_discovery.c ****     GPIO_InitStruct.Mode = GPIO_MODE_INPUT;
 499              		.loc 1 272 5 is_stmt 1 view .LVU115
 272:STM32Cube_FW_F3_V1.11.1/Drivers/BSP/STM32F3-Discovery/stm32f3_discovery.c ****     GPIO_InitStruct.Mode = GPIO_MODE_INPUT;
 500              		.loc 1 272 25 is_stmt 0 view .LVU116
 501 003c 0123     		movs	r3, #1
 502 003e 0393     		str	r3, [sp, #12]
 273:STM32Cube_FW_F3_V1.11.1/Drivers/BSP/STM32F3-Discovery/stm32f3_discovery.c ****     GPIO_InitStruct.Pull = GPIO_PULLDOWN;
 503              		.loc 1 273 5 is_stmt 1 view .LVU117
 273:STM32Cube_FW_F3_V1.11.1/Drivers/BSP/STM32F3-Discovery/stm32f3_discovery.c ****     GPIO_InitStruct.Pull = GPIO_PULLDOWN;
 504              		.loc 1 273 26 is_stmt 0 view .LVU118
 505 0040 0023     		movs	r3, #0
 506 0042 0493     		str	r3, [sp, #16]
 274:STM32Cube_FW_F3_V1.11.1/Drivers/BSP/STM32F3-Discovery/stm32f3_discovery.c ****     GPIO_InitStruct.Speed = GPIO_SPEED_FREQ_HIGH;
 507              		.loc 1 274 5 is_stmt 1 view .LVU119
 274:STM32Cube_FW_F3_V1.11.1/Drivers/BSP/STM32F3-Discovery/stm32f3_discovery.c ****     GPIO_InitStruct.Speed = GPIO_SPEED_FREQ_HIGH;
 508              		.loc 1 274 26 is_stmt 0 view .LVU120
 509 0044 0223     		movs	r3, #2
 510 0046 0593     		str	r3, [sp, #20]
 275:STM32Cube_FW_F3_V1.11.1/Drivers/BSP/STM32F3-Discovery/stm32f3_discovery.c ****     HAL_GPIO_Init(BUTTON_PORT[Button], &GPIO_InitStruct);
 511              		.loc 1 275 5 is_stmt 1 view .LVU121
 275:STM32Cube_FW_F3_V1.11.1/Drivers/BSP/STM32F3-Discovery/stm32f3_discovery.c ****     HAL_GPIO_Init(BUTTON_PORT[Button], &GPIO_InitStruct);
 512              		.loc 1 275 27 is_stmt 0 view .LVU122
 513 0048 0323     		movs	r3, #3
 514 004a 0693     		str	r3, [sp, #24]
 276:STM32Cube_FW_F3_V1.11.1/Drivers/BSP/STM32F3-Discovery/stm32f3_discovery.c ****   }
 515              		.loc 1 276 5 is_stmt 1 view .LVU123
 516 004c 03A9     		add	r1, sp, #12
 517              	.LVL17:
ARM GAS  /var/folders/5l/y8xcsg6s4873r8dg5jznx69w0000gn/T//ccdqtk2s.s 			page 16


 276:STM32Cube_FW_F3_V1.11.1/Drivers/BSP/STM32F3-Discovery/stm32f3_discovery.c ****   }
 518              		.loc 1 276 5 is_stmt 0 view .LVU124
 519 004e 0F4B     		ldr	r3, .L41+4
 520 0050 53F82500 		ldr	r0, [r3, r5, lsl #2]
 521              	.LVL18:
 276:STM32Cube_FW_F3_V1.11.1/Drivers/BSP/STM32F3-Discovery/stm32f3_discovery.c ****   }
 522              		.loc 1 276 5 view .LVU125
 523 0054 FFF7FEFF 		bl	HAL_GPIO_Init
 524              	.LVL19:
 525 0058 ECE7     		b	.L36
 526              	.L40:
 282:STM32Cube_FW_F3_V1.11.1/Drivers/BSP/STM32F3-Discovery/stm32f3_discovery.c ****     GPIO_InitStruct.Pull = GPIO_NOPULL;
 527              		.loc 1 282 5 is_stmt 1 view .LVU126
 282:STM32Cube_FW_F3_V1.11.1/Drivers/BSP/STM32F3-Discovery/stm32f3_discovery.c ****     GPIO_InitStruct.Pull = GPIO_NOPULL;
 528              		.loc 1 282 25 is_stmt 0 view .LVU127
 529 005a 0123     		movs	r3, #1
 530 005c 0393     		str	r3, [sp, #12]
 283:STM32Cube_FW_F3_V1.11.1/Drivers/BSP/STM32F3-Discovery/stm32f3_discovery.c ****     GPIO_InitStruct.Speed = GPIO_SPEED_FREQ_HIGH;
 531              		.loc 1 283 5 is_stmt 1 view .LVU128
 283:STM32Cube_FW_F3_V1.11.1/Drivers/BSP/STM32F3-Discovery/stm32f3_discovery.c ****     GPIO_InitStruct.Speed = GPIO_SPEED_FREQ_HIGH;
 532              		.loc 1 283 26 is_stmt 0 view .LVU129
 533 005e 0024     		movs	r4, #0
 534 0060 0594     		str	r4, [sp, #20]
 284:STM32Cube_FW_F3_V1.11.1/Drivers/BSP/STM32F3-Discovery/stm32f3_discovery.c ****     GPIO_InitStruct.Mode = GPIO_MODE_IT_RISING; 
 535              		.loc 1 284 5 is_stmt 1 view .LVU130
 284:STM32Cube_FW_F3_V1.11.1/Drivers/BSP/STM32F3-Discovery/stm32f3_discovery.c ****     GPIO_InitStruct.Mode = GPIO_MODE_IT_RISING; 
 536              		.loc 1 284 27 is_stmt 0 view .LVU131
 537 0062 0323     		movs	r3, #3
 538 0064 0693     		str	r3, [sp, #24]
 285:STM32Cube_FW_F3_V1.11.1/Drivers/BSP/STM32F3-Discovery/stm32f3_discovery.c ****     HAL_GPIO_Init(BUTTON_PORT[Button], &GPIO_InitStruct);
 539              		.loc 1 285 5 is_stmt 1 view .LVU132
 285:STM32Cube_FW_F3_V1.11.1/Drivers/BSP/STM32F3-Discovery/stm32f3_discovery.c ****     HAL_GPIO_Init(BUTTON_PORT[Button], &GPIO_InitStruct);
 540              		.loc 1 285 26 is_stmt 0 view .LVU133
 541 0066 0A4B     		ldr	r3, .L41+8
 542 0068 0493     		str	r3, [sp, #16]
 286:STM32Cube_FW_F3_V1.11.1/Drivers/BSP/STM32F3-Discovery/stm32f3_discovery.c **** 
 543              		.loc 1 286 5 is_stmt 1 view .LVU134
 544 006a 03A9     		add	r1, sp, #12
 545 006c 074B     		ldr	r3, .L41+4
 546 006e 53F82500 		ldr	r0, [r3, r5, lsl #2]
 547 0072 FFF7FEFF 		bl	HAL_GPIO_Init
 548              	.LVL20:
 289:STM32Cube_FW_F3_V1.11.1/Drivers/BSP/STM32F3-Discovery/stm32f3_discovery.c ****     HAL_NVIC_EnableIRQ((IRQn_Type)(BUTTON_IRQn[Button]));
 549              		.loc 1 289 5 view .LVU135
 550 0076 2246     		mov	r2, r4
 551 0078 0F21     		movs	r1, #15
 552 007a 0620     		movs	r0, #6
 553 007c FFF7FEFF 		bl	HAL_NVIC_SetPriority
 554              	.LVL21:
 290:STM32Cube_FW_F3_V1.11.1/Drivers/BSP/STM32F3-Discovery/stm32f3_discovery.c ****   }
 555              		.loc 1 290 5 view .LVU136
 556 0080 0620     		movs	r0, #6
 557 0082 FFF7FEFF 		bl	HAL_NVIC_EnableIRQ
 558              	.LVL22:
 559              		.loc 1 292 1 is_stmt 0 view .LVU137
 560 0086 D7E7     		b	.L34
 561              	.L42:
ARM GAS  /var/folders/5l/y8xcsg6s4873r8dg5jznx69w0000gn/T//ccdqtk2s.s 			page 17


 562              		.align	2
 563              	.L41:
 564 0088 00100240 		.word	1073876992
 565 008c 00000000 		.word	.LANCHOR2
 566 0090 00001110 		.word	269549568
 567              		.cfi_endproc
 568              	.LFE135:
 570              		.section	.text.BSP_PB_GetState,"ax",%progbits
 571              		.align	1
 572              		.global	BSP_PB_GetState
 573              		.syntax unified
 574              		.thumb
 575              		.thumb_func
 576              		.fpu fpv4-sp-d16
 578              	BSP_PB_GetState:
 579              	.LVL23:
 580              	.LFB136:
 293:STM32Cube_FW_F3_V1.11.1/Drivers/BSP/STM32F3-Discovery/stm32f3_discovery.c **** 
 294:STM32Cube_FW_F3_V1.11.1/Drivers/BSP/STM32F3-Discovery/stm32f3_discovery.c **** /**
 295:STM32Cube_FW_F3_V1.11.1/Drivers/BSP/STM32F3-Discovery/stm32f3_discovery.c ****   * @brief  Returns the selected Push Button state.
 296:STM32Cube_FW_F3_V1.11.1/Drivers/BSP/STM32F3-Discovery/stm32f3_discovery.c ****   * @param  Button Specifies the Button to be checked.
 297:STM32Cube_FW_F3_V1.11.1/Drivers/BSP/STM32F3-Discovery/stm32f3_discovery.c ****   *   This parameter should be: BUTTON_USER  
 298:STM32Cube_FW_F3_V1.11.1/Drivers/BSP/STM32F3-Discovery/stm32f3_discovery.c ****   * @retval The Button GPIO pin value.
 299:STM32Cube_FW_F3_V1.11.1/Drivers/BSP/STM32F3-Discovery/stm32f3_discovery.c ****   */
 300:STM32Cube_FW_F3_V1.11.1/Drivers/BSP/STM32F3-Discovery/stm32f3_discovery.c **** uint32_t BSP_PB_GetState(Button_TypeDef Button)
 301:STM32Cube_FW_F3_V1.11.1/Drivers/BSP/STM32F3-Discovery/stm32f3_discovery.c **** {
 581              		.loc 1 301 1 is_stmt 1 view -0
 582              		.cfi_startproc
 583              		@ args = 0, pretend = 0, frame = 0
 584              		@ frame_needed = 0, uses_anonymous_args = 0
 585              		.loc 1 301 1 is_stmt 0 view .LVU139
 586 0000 08B5     		push	{r3, lr}
 587              	.LCFI11:
 588              		.cfi_def_cfa_offset 8
 589              		.cfi_offset 3, -8
 590              		.cfi_offset 14, -4
 302:STM32Cube_FW_F3_V1.11.1/Drivers/BSP/STM32F3-Discovery/stm32f3_discovery.c ****   return HAL_GPIO_ReadPin(BUTTON_PORT[Button], BUTTON_PIN[Button]);
 591              		.loc 1 302 3 is_stmt 1 view .LVU140
 592              		.loc 1 302 10 is_stmt 0 view .LVU141
 593 0002 0121     		movs	r1, #1
 594 0004 024B     		ldr	r3, .L45
 595 0006 53F82000 		ldr	r0, [r3, r0, lsl #2]
 596              	.LVL24:
 597              		.loc 1 302 10 view .LVU142
 598 000a FFF7FEFF 		bl	HAL_GPIO_ReadPin
 599              	.LVL25:
 303:STM32Cube_FW_F3_V1.11.1/Drivers/BSP/STM32F3-Discovery/stm32f3_discovery.c **** }
 600              		.loc 1 303 1 view .LVU143
 601 000e 08BD     		pop	{r3, pc}
 602              	.L46:
 603              		.align	2
 604              	.L45:
 605 0010 00000000 		.word	.LANCHOR2
 606              		.cfi_endproc
 607              	.LFE136:
 609              		.global	BUTTON_IRQn
 610              		.global	BUTTON_PIN
ARM GAS  /var/folders/5l/y8xcsg6s4873r8dg5jznx69w0000gn/T//ccdqtk2s.s 			page 18


 611              		.global	BUTTON_PORT
 612              		.global	LED_PIN
 613              		.global	LED_PORT
 614              		.section	.data.BUTTON_PORT,"aw"
 615              		.align	2
 616              		.set	.LANCHOR2,. + 0
 619              	BUTTON_PORT:
 620 0000 00000048 		.word	1207959552
 621              		.section	.data.LED_PORT,"aw"
 622              		.align	2
 623              		.set	.LANCHOR1,. + 0
 626              	LED_PORT:
 627 0000 00100048 		.word	1207963648
 628 0004 00100048 		.word	1207963648
 629 0008 00100048 		.word	1207963648
 630 000c 00100048 		.word	1207963648
 631 0010 00100048 		.word	1207963648
 632 0014 00100048 		.word	1207963648
 633 0018 00100048 		.word	1207963648
 634 001c 00100048 		.word	1207963648
 635              		.section	.rodata.BUTTON_IRQn,"a"
 636              		.align	2
 639              	BUTTON_IRQn:
 640 0000 06       		.ascii	"\006"
 641              		.section	.rodata.BUTTON_PIN,"a"
 642              		.align	2
 645              	BUTTON_PIN:
 646 0000 0100     		.short	1
 647              		.section	.rodata.LED_PIN,"a"
 648              		.align	2
 649              		.set	.LANCHOR0,. + 0
 652              	LED_PIN:
 653 0000 0002     		.short	512
 654 0002 0001     		.short	256
 655 0004 0004     		.short	1024
 656 0006 0080     		.short	-32768
 657 0008 0008     		.short	2048
 658 000a 0040     		.short	16384
 659 000c 0010     		.short	4096
 660 000e 0020     		.short	8192
 661              		.text
 662              	.Letext0:
 663              		.file 2 "STM32Cube_FW_F3_V1.11.1/Drivers/CMSIS/Device/ST/STM32F3xx/Include/stm32f303xc.h"
 664              		.file 3 "/Users/brunoflores/Downloads/gcc-arm-none-eabi-9-2020-q2-update/arm-none-eabi/include/mac
 665              		.file 4 "/Users/brunoflores/Downloads/gcc-arm-none-eabi-9-2020-q2-update/arm-none-eabi/include/sys
 666              		.file 5 "STM32Cube_FW_F3_V1.11.1/Drivers/CMSIS/Include/core_cm4.h"
 667              		.file 6 "STM32Cube_FW_F3_V1.11.1/Drivers/CMSIS/Device/ST/STM32F3xx/Include/system_stm32f3xx.h"
 668              		.file 7 "STM32Cube_FW_F3_V1.11.1/Drivers/STM32F3xx_HAL_Driver/Inc/stm32f3xx_hal_gpio.h"
 669              		.file 8 "STM32Cube_FW_F3_V1.11.1/Drivers/STM32F3xx_HAL_Driver/Inc/stm32f3xx_hal.h"
 670              		.file 9 "STM32Cube_FW_F3_V1.11.1/Drivers/BSP/STM32F3-Discovery/stm32f3_discovery.h"
 671              		.file 10 "STM32Cube_FW_F3_V1.11.1/Drivers/STM32F3xx_HAL_Driver/Inc/stm32f3xx_hal_cortex.h"
ARM GAS  /var/folders/5l/y8xcsg6s4873r8dg5jznx69w0000gn/T//ccdqtk2s.s 			page 19

